; Function Attrs: mustprogress nofree norecurse nosync nounwind willreturn memory(argmem: read) uwtable
define noundef i32 @_ZN10OpenSubdiv6v3_6_03Bfr3tri21CountNonUniformFacetsEPKii(ptr nocapture noundef readonly %0, i32 noundef %1) local_unnamed_addr #5 align 2 {
  %3 = add nsw i32 %1, -3
  %4 = load i32, ptr %0, align 4
  %5 = getelementptr inbounds i8, ptr %0, i64 4
  %6 = load i32, ptr %5, align 4
  %7 = getelementptr inbounds i8, ptr %0, i64 8
  %8 = load i32, ptr %7, align 4
  %reass.mul = mul i32 %1, %3
  %9 = add i32 %6, %4
  %10 = add i32 %9, %8
  %11 = add i32 %10, %reass.mul
  ret i32 %11
}